Certificate Request:
    Data:
        Version: 1 (0x0)
        Subject: C = NL, ST = Noord-Brabant, L = Breda, O = Circle, OU = Avans, CN = Jorrit, emailAddress = jwc.meeuwissen@student.avans.nl
        Subject Public Key Info:
            Public Key Algorithm: rsaEncryption
                RSA Public-Key: (2048 bit)
                Modulus:
                    00:9e:67:f7:81:da:ed:48:22:cc:da:5f:53:81:ec:
                    93:e7:c1:1d:34:54:a1:08:a3:f2:20:b6:55:62:5b:
                    8a:77:70:6b:31:f6:aa:d4:76:04:bf:69:6c:b2:6a:
                    f1:0a:d1:d9:be:b3:3d:4e:6b:86:c7:9c:62:af:6e:
                    02:96:d8:bd:bf:bf:45:0c:b0:3e:69:45:e8:00:67:
                    d5:c1:2a:ad:11:90:ea:d2:bc:4c:c2:cb:4f:f4:02:
                    37:9b:4f:4b:54:dc:1b:ce:22:7e:85:db:c5:2e:1d:
                    8f:0b:b3:64:bc:94:e3:36:0f:45:d7:6e:b5:cf:b7:
                    47:5a:a2:8d:54:67:a2:4f:b3:f2:71:41:12:ec:da:
                    3c:b4:f1:be:da:16:ef:1b:16:2b:6b:0d:99:9a:02:
                    fd:e5:29:fa:2e:cf:b3:56:cf:ce:64:9f:7e:1b:34:
                    c8:39:c4:19:20:6d:d4:a1:32:55:02:8a:8b:70:15:
                    06:a7:4f:52:93:f9:39:b3:ac:ea:fa:ab:1b:7a:53:
                    d3:bb:94:b3:f4:bc:f5:b3:f3:31:b1:4d:30:a6:0d:
                    6f:31:56:f4:72:66:ed:be:5f:5a:ba:f1:3e:c0:63:
                    f4:9e:63:8d:b9:ab:c8:42:cb:f1:7f:fe:28:ad:ce:
                    21:52:da:af:cd:b0:ef:15:89:39:b1:6c:14:db:5f:
                    a1:69
                Exponent: 65537 (0x10001)
        Attributes:
            a0:00
    Signature Algorithm: sha256WithRSAEncryption
         01:52:10:4b:53:ff:79:16:17:9d:5b:5f:f0:3c:3f:a2:e8:9b:
         57:d2:80:6c:85:a3:c7:56:58:52:7e:fd:68:41:3c:ac:30:8e:
         b3:34:34:4e:a1:aa:c1:35:1b:7e:f1:32:f4:72:d6:51:c5:d7:
         d1:c3:d8:4a:2d:6e:f7:a2:e7:3b:8b:34:a3:32:80:ac:6e:6f:
         67:d5:91:17:66:20:14:78:37:2c:43:3b:17:16:4b:65:d5:b3:
         a1:ab:59:92:98:e5:50:a3:d5:43:c5:9f:ab:82:47:4d:b4:12:
         88:f1:db:12:32:77:d0:75:29:48:20:85:c0:a3:c7:a0:f2:b1:
         fc:2d:97:fd:a8:ce:f8:63:2f:ab:31:84:08:9b:d2:f5:9a:92:
         e1:4b:9b:19:23:98:20:39:6c:27:03:b6:11:8b:a2:69:f7:64:
         4f:bd:87:41:f8:18:a4:2c:3b:54:58:51:e7:ee:68:b9:73:01:
         ba:bf:b9:c1:af:37:f2:52:d7:54:7d:9a:d4:1e:f4:24:55:cb:
         66:9e:b5:63:ad:20:cc:c4:65:94:33:55:dd:b5:2a:8e:e8:6f:
         5f:98:45:ef:51:35:ed:5f:b1:84:f3:74:4c:78:60:bc:43:5c:
         e5:67:03:14:5b:54:da:49:22:c9:88:cd:5c:e9:22:4a:73:17:
         8b:b8:f3:69
-----BEGIN CERTIFICATE REQUEST-----
MIIC3TCCAcUCAQAwgZcxCzAJBgNVBAYTAk5MMRYwFAYDVQQIDA1Ob29yZC1CcmFi
YW50MQ4wDAYDVQQHDAVCcmVkYTEPMA0GA1UECgwGQ2lyY2xlMQ4wDAYDVQQLDAVB
dmFuczEPMA0GA1UEAwwGSm9ycml0MS4wLAYJKoZIhvcNAQkBFh9qd2MubWVldXdp
c3NlbkBzdHVkZW50LmF2YW5zLm5sMIIBIjANBgkqhkiG9w0BAQEFAAOCAQ8AMIIB
CgKCAQEAnmf3gdrtSCLM2l9TgeyT58EdNFShCKPyILZVYluKd3BrMfaq1HYEv2ls
smrxCtHZvrM9TmuGx5xir24Clti9v79FDLA+aUXoAGfVwSqtEZDq0rxMwstP9AI3
m09LVNwbziJ+hdvFLh2PC7NkvJTjNg9F1261z7dHWqKNVGeiT7PycUES7No8tPG+
2hbvGxYraw2ZmgL95Sn6Ls+zVs/OZJ9+GzTIOcQZIG3UoTJVAoqLcBUGp09Sk/k5
s6zq+qsbelPTu5Sz9Lz1s/MxsU0wpg1vMVb0cmbtvl9auvE+wGP0nmONuavIQsvx
f/4orc4hUtqvzbDvFYk5sWwU21+haQIDAQABoAAwDQYJKoZIhvcNAQELBQADggEB
AAFSEEtT/3kWF51bX/A8P6Lom1fSgGyFo8dWWFJ+/WhBPKwwjrM0NE6hqsE1G37x
MvRy1lHF19HD2Eotbvei5zuLNKMygKxub2fVkRdmIBR4NyxDOxcWS2XVs6GrWZKY
5VCj1UPFn6uCR020Eojx2xIyd9B1KUgghcCjx6Dysfwtl/2ozvhjL6sxhAib0vWa
kuFLmxkjmCA5bCcDthGLomn3ZE+9h0H4GKQsO1RYUefuaLlzAbq/ucGvN/JS11R9
mtQe9CRVy2aetWOtIMzEZZQzVd21Ko7ob1+YRe9RNe1fsYTzdEx4YLxDXOVnAxRb
VNpJIsmIzVzpIkpzF4u482k=
-----END CERTIFICATE REQUEST-----
